; Function Attrs: nounwind uwtable
define i32 @Res_NodeDeref_rec(ptr noundef readonly captures(none) %0) local_unnamed_addr #0 {
  %2 = getelementptr i8, ptr %0, i64 20
  %.val17 = load i32, ptr %2, align 4
  %3 = and i32 %.val17, 15
  switch i32 %3, label %4 [
    i32 5, label %.critedge
    i32 2, label %.critedge
  ]

4:                                                ; preds = %1
  %.val = load ptr, ptr %0, align 8, !tbaa !13
  %5 = getelementptr i8, ptr %0, i64 16
  %.val13 = load i32, ptr %5, align 8, !tbaa !42
  %6 = getelementptr inbounds nuw i8, ptr %.val, i64 216
  %7 = load i32, ptr %6, align 8, !tbaa !38
  %8 = getelementptr inbounds nuw i8, ptr %.val, i64 224
  %9 = add nsw i32 %.val13, 1
  %10 = getelementptr inbounds nuw i8, ptr %.val, i64 228
  %11 = load i32, ptr %10, align 4, !tbaa !37
  %.not.i.not.i.i.i = icmp slt i32 %.val13, %11
  br i1 %.not.i.not.i.i.i, label %Abc_NodeSetTravIdCurrent.exit, label %12

12:                                               ; preds = %4
  %13 = load i32, ptr %8, align 8, !tbaa !34
  %14 = shl nsw i32 %13, 1
  %.not.i.i.i = icmp slt i32 %.val13, %14
  %.not.i.i.not.i.i.i = icmp sgt i32 %13, %.val13
  br i1 %.not.i.i.i, label %27, label %15

15:                                               ; preds = %12
  br i1 %.not.i.i.not.i.i.i, label %Vec_IntGrow.exit.i.i.i.i, label %16

16:                                               ; preds = %15
  %17 = getelementptr inbounds nuw i8, ptr %.val, i64 232
  %18 = load ptr, ptr %17, align 8, !tbaa !35
  %.not9.i.i.i.i.i = icmp eq ptr %18, null
  %19 = sext i32 %9 to i64
  %20 = shl nsw i64 %19, 2
  br i1 %.not9.i.i.i.i.i, label %23, label %21

21:                                               ; preds = %16
  %22 = tail call ptr @realloc(ptr noundef nonnull %18, i64 noundef %20) #7
  br label %25

23:                                               ; preds = %16
  %24 = tail call noalias ptr @malloc(i64 noundef %20) #6
  br label %25

25:                                               ; preds = %23, %21
  %26 = phi ptr [ %22, %21 ], [ %24, %23 ]
  store ptr %26, ptr %17, align 8, !tbaa !35
  br label %Vec_IntGrow.exit.sink.split.i.i.i.i

27:                                               ; preds = %12
  br i1 %.not.i.i.not.i.i.i, label %Vec_IntGrow.exit.i.i.i.i, label %28

28:                                               ; preds = %27
  %29 = getelementptr inbounds nuw i8, ptr %.val, i64 232
  %30 = load ptr, ptr %29, align 8, !tbaa !35
  %.not9.i21.i.i.i.i = icmp eq ptr %30, null
  %31 = sext i32 %14 to i64
  %32 = shl nsw i64 %31, 2
  br i1 %.not9.i21.i.i.i.i, label %35, label %33

33:                                               ; preds = %28
  %34 = tail call ptr @realloc(ptr noundef nonnull %30, i64 noundef %32) #7
  br label %37

35:                                               ; preds = %28
  %36 = tail call noalias ptr @malloc(i64 noundef %32) #6
  br label %37

37:                                               ; preds = %35, %33
  %38 = phi ptr [ %34, %33 ], [ %36, %35 ]
  store ptr %38, ptr %29, align 8, !tbaa !35
  br label %Vec_IntGrow.exit.sink.split.i.i.i.i

Vec_IntGrow.exit.sink.split.i.i.i.i:              ; preds = %37, %25
  %.sink.i.i.i.i = phi i32 [ %14, %37 ], [ %9, %25 ]
  store i32 %.sink.i.i.i.i, ptr %8, align 8, !tbaa !34
  %.pre.i.i.i = load i32, ptr %10, align 4, !tbaa !37
  br label %Vec_IntGrow.exit.i.i.i.i

Vec_IntGrow.exit.i.i.i.i:                         ; preds = %Vec_IntGrow.exit.sink.split.i.i.i.i, %27, %15
  %39 = phi i32 [ %.pre.i.i.i, %Vec_IntGrow.exit.sink.split.i.i.i.i ], [ %11, %27 ], [ %11, %15 ]
  %.not4.i.i.i = icmp sgt i32 %39, %.val13
  br i1 %.not4.i.i.i, label %._crit_edge.i.i.i.i, label %.lr.ph.i.i.i.i

.lr.ph.i.i.i.i:                                   ; preds = %Vec_IntGrow.exit.i.i.i.i
  %40 = getelementptr inbounds nuw i8, ptr %.val, i64 232
  %41 = load ptr, ptr %40, align 8, !tbaa !35
  %42 = sext i32 %39 to i64
  %43 = shl nsw i64 %42, 2
  %scevgep.i.i.i.i = getelementptr i8, ptr %41, i64 %43
  %44 = sub i32 %.val13, %39
  %45 = zext i32 %44 to i64
  %46 = shl nuw nsw i64 %45, 2
  %47 = add nuw nsw i64 %46, 4
  tail call void @llvm.memset.p0.i64(ptr noundef nonnull align 4 dereferenceable(1) %scevgep.i.i.i.i, i8 0, i64 %47, i1 false), !tbaa !36
  br label %._crit_edge.i.i.i.i

._crit_edge.i.i.i.i:                              ; preds = %.lr.ph.i.i.i.i, %Vec_IntGrow.exit.i.i.i.i
  store i32 %9, ptr %10, align 4, !tbaa !37
  br label %Abc_NodeSetTravIdCurrent.exit

Abc_NodeSetTravIdCurrent.exit:                    ; preds = %4, %._crit_edge.i.i.i.i
  %48 = getelementptr i8, ptr %.val, i64 232
  %.val.i.i.i = load ptr, ptr %48, align 8, !tbaa !35
  %49 = sext i32 %.val13 to i64
  %50 = getelementptr inbounds i32, ptr %.val.i.i.i, i64 %49
  store i32 %7, ptr %50, align 4, !tbaa !36
  %51 = getelementptr i8, ptr %0, i64 28
  %.val1420 = load i32, ptr %51, align 4, !tbaa !45
  %52 = icmp sgt i32 %.val1420, 0
  br i1 %52, label %.lr.ph, label %.critedge

.lr.ph:                                           ; preds = %Abc_NodeSetTravIdCurrent.exit
  %53 = getelementptr i8, ptr %0, i64 32
  br label %54

54:                                               ; preds = %.lr.ph, %69
  %.val1424 = phi i32 [ %.val1420, %.lr.ph ], [ %.val14, %69 ]
  %indvars.iv = phi i64 [ 0, %.lr.ph ], [ %indvars.iv.next, %69 ]
  %.022 = phi i32 [ 1, %.lr.ph ], [ %.1, %69 ]
  %.val15 = load ptr, ptr %0, align 8, !tbaa !13
  %.val16 = load ptr, ptr %53, align 8, !tbaa !46
  %55 = getelementptr i8, ptr %.val15, i64 32
  %.val15.val = load ptr, ptr %55, align 8, !tbaa !31
  %56 = getelementptr i8, ptr %.val15.val, i64 8
  %.val15.val.val = load ptr, ptr %56, align 8, !tbaa !40
  %57 = getelementptr inbounds nuw i32, ptr %.val16, i64 %indvars.iv
  %58 = load i32, ptr %57, align 4, !tbaa !36
  %59 = sext i32 %58 to i64
  %60 = getelementptr inbounds ptr, ptr %.val15.val.val, i64 %59
  %61 = load ptr, ptr %60, align 8, !tbaa !41
  %62 = getelementptr inbounds nuw i8, ptr %61, i64 44
  %63 = load i32, ptr %62, align 4, !tbaa !54
  %64 = add nsw i32 %63, -1
  store i32 %64, ptr %62, align 4, !tbaa !54
  %65 = icmp eq i32 %64, 0
  br i1 %65, label %66, label %69

66:                                               ; preds = %54
  %67 = tail call i32 @Res_NodeDeref_rec(ptr noundef nonnull %61)
  %68 = add nsw i32 %67, %.022
  %.val14.pre = load i32, ptr %51, align 4, !tbaa !45
  br label %69

69:                                               ; preds = %54, %66
  %.val14 = phi i32 [ %.val14.pre, %66 ], [ %.val1424, %54 ]
  %.1 = phi i32 [ %68, %66 ], [ %.022, %54 ]
  %indvars.iv.next = add nuw nsw i64 %indvars.iv, 1
  %70 = sext i32 %.val14 to i64
  %71 = icmp slt i64 %indvars.iv.next, %70
  br i1 %71, label %54, label %.critedge, !llvm.loop !61

.critedge:                                        ; preds = %69, %Abc_NodeSetTravIdCurrent.exit, %1, %1
  %.012 = phi i32 [ 0, %1 ], [ 0, %1 ], [ 1, %Abc_NodeSetTravIdCurrent.exit ], [ %.1, %69 ]
  ret i32 %.012
}